target datalayout = "e-m:e-p270:32:32-p271:32:32-p272:64:64-i64:64-i128:128-f80:128-n8:16:32:64-S128"
target triple = "x86_64-pc-linux-gnu"

%"class.glslang::TIntermTraverser" = type { ptr, i8, i8, i8, i8, i32, i32, %"class.glslang::TVector" }
%"class.glslang::TVector" = type { %"class.std::vector" }
%"class.std::vector" = type { %"struct.std::_Vector_base" }
%"struct.std::_Vector_base" = type { %"struct.std::_Vector_base<TIntermNode *, glslang::pool_allocator<TIntermNode *>>::_Vector_impl" }
%"struct.std::_Vector_base<TIntermNode *, glslang::pool_allocator<TIntermNode *>>::_Vector_impl" = type { %"class.glslang::pool_allocator.1", %"struct.std::_Vector_base<TIntermNode *, glslang::pool_allocator<TIntermNode *>>::_Vector_impl_data" }
%"class.glslang::pool_allocator.1" = type { ptr }
%"struct.std::_Vector_base<TIntermNode *, glslang::pool_allocator<TIntermNode *>>::_Vector_impl_data" = type { ptr, ptr, ptr }
%"struct.glslang::TSourceLoc" = type { ptr, i32, i32, i32 }
%"struct.std::_Rb_tree_const_iterator" = type { ptr }
%"class.glslang::TIndexTraverser" = type { %"class.glslang::TIntermTraverser", ptr, i8, %"struct.glslang::TSourceLoc" }
%"class.std::set" = type { %"class.std::_Rb_tree.55" }
%"class.std::_Rb_tree.55" = type { %"struct.std::_Rb_tree<long long, long long, std::_Identity<long long>, std::less<long long>>::_Rb_tree_impl" }
%"struct.std::_Rb_tree<long long, long long, std::_Identity<long long>, std::less<long long>>::_Rb_tree_impl" = type { %"struct.std::_Rb_tree_key_compare.59", %"struct.std::_Rb_tree_header" }
%"struct.std::_Rb_tree_key_compare.59" = type { %"struct.std::less.60" }
%"struct.std::less.60" = type { i8 }
%"struct.std::_Rb_tree_header" = type { %"struct.std::_Rb_tree_node_base", i64 }
%"struct.std::_Rb_tree_node_base" = type { i32, ptr, ptr, ptr }
%"struct.std::_Identity" = type { i8 }
%"struct.std::_Rb_tree_node.87" = type { %"struct.std::_Rb_tree_node_base", %"struct.__gnu_cxx::__aligned_membuf.88" }
%"struct.__gnu_cxx::__aligned_membuf.88" = type { [8 x i8] }

; Function Attrs: mustprogress nounwind uwtable
define linkonce_odr noundef ptr @_ZNK9__gnu_cxx16__aligned_membufIxE7_M_addrEv(ptr noundef nonnull align 8 dereferenceable(8) %0) #0 comdat align 2 {
  %2 = alloca ptr, align 8
  store ptr %0, ptr %2, align 8
  %3 = load ptr, ptr %2, align 8
  %4 = getelementptr inbounds %"struct.__gnu_cxx::__aligned_membuf.88", ptr %3, i32 0, i32 0
  ret ptr %4
}

; Function Attrs: mustprogress nounwind uwtable
define linkonce_odr noundef ptr @_ZNK9__gnu_cxx16__aligned_membufIxE6_M_ptrEv(ptr noundef nonnull align 8 dereferenceable(8) %0) #0 comdat align 2 {
  %2 = alloca ptr, align 8
  store ptr %0, ptr %2, align 8
  %3 = load ptr, ptr %2, align 8
  %4 = call noundef ptr @_ZNK9__gnu_cxx16__aligned_membufIxE7_M_addrEv(ptr noundef nonnull align 8 dereferenceable(8) %3) #5
  ret ptr %4
}

; Function Attrs: mustprogress nounwind uwtable
define linkonce_odr noundef nonnull align 8 dereferenceable(8) ptr @_ZNKSt9_IdentityIxEclERKx(ptr noundef nonnull align 1 dereferenceable(1) %0, ptr noundef nonnull align 8 dereferenceable(8) %1) #0 comdat align 2 {
  %3 = alloca ptr, align 8
  %4 = alloca ptr, align 8
  store ptr %0, ptr %3, align 8
  store ptr %1, ptr %4, align 8
  %5 = load ptr, ptr %4, align 8
  ret ptr %5
}

; Function Attrs: mustprogress nounwind uwtable
define linkonce_odr noundef ptr @_ZNKSt13_Rb_tree_nodeIxE9_M_valptrEv(ptr noundef nonnull align 8 dereferenceable(40) %0) #0 comdat align 2 {
  %2 = alloca ptr, align 8
  store ptr %0, ptr %2, align 8
  %3 = load ptr, ptr %2, align 8
  %4 = getelementptr inbounds %"struct.std::_Rb_tree_node.87", ptr %3, i32 0, i32 1
  %5 = call noundef ptr @_ZNK9__gnu_cxx16__aligned_membufIxE6_M_ptrEv(ptr noundef nonnull align 8 dereferenceable(8) %4) #5
  ret ptr %5
}

; Function Attrs: mustprogress nounwind uwtable
define linkonce_odr noundef ptr @_ZNSt8_Rb_treeIxxSt9_IdentityIxESt4lessIxESaIxEE8_S_rightEPKSt18_Rb_tree_node_base(ptr noundef %0) #0 comdat align 2 {
  %2 = alloca ptr, align 8
  store ptr %0, ptr %2, align 8
  %3 = load ptr, ptr %2, align 8
  %4 = getelementptr inbounds %"struct.std::_Rb_tree_node_base", ptr %3, i32 0, i32 3
  %5 = load ptr, ptr %4, align 8
  ret ptr %5
}

; Function Attrs: mustprogress nounwind uwtable
define linkonce_odr noundef ptr @_ZNSt8_Rb_treeIxxSt9_IdentityIxESt4lessIxESaIxEE7_S_leftEPKSt18_Rb_tree_node_base(ptr noundef %0) #0 comdat align 2 {
  %2 = alloca ptr, align 8
  store ptr %0, ptr %2, align 8
  %3 = load ptr, ptr %2, align 8
  %4 = getelementptr inbounds %"struct.std::_Rb_tree_node_base", ptr %3, i32 0, i32 2
  %5 = load ptr, ptr %4, align 8
  ret ptr %5
}

; Function Attrs: mustprogress nounwind uwtable
define linkonce_odr noundef nonnull align 8 dereferenceable(8) ptr @_ZNSt8_Rb_treeIxxSt9_IdentityIxESt4lessIxESaIxEE6_S_keyEPKSt13_Rb_tree_nodeIxE(ptr noundef %0) #0 comdat align 2 {
  %2 = alloca ptr, align 8
  %3 = alloca %"struct.std::_Identity", align 1
  store ptr %0, ptr %2, align 8
  %4 = load ptr, ptr %2, align 8
  %5 = call noundef ptr @_ZNKSt13_Rb_tree_nodeIxE9_M_valptrEv(ptr noundef nonnull align 8 dereferenceable(40) %4)
  %6 = call noundef nonnull align 8 dereferenceable(8) ptr @_ZNKSt9_IdentityIxEclERKx(ptr noundef nonnull align 1 dereferenceable(1) %3, ptr noundef nonnull align 8 dereferenceable(8) %5)
  ret ptr %6
}

; Function Attrs: mustprogress nounwind uwtable
define linkonce_odr void @_ZNSt23_Rb_tree_const_iteratorIxEC2EPKSt18_Rb_tree_node_base(ptr noundef nonnull align 8 dereferenceable(8) %0, ptr noundef %1) unnamed_addr #0 comdat align 2 {
  %3 = alloca ptr, align 8
  %4 = alloca ptr, align 8
  store ptr %0, ptr %3, align 8
  store ptr %1, ptr %4, align 8
  %5 = load ptr, ptr %3, align 8
  %6 = getelementptr inbounds %"struct.std::_Rb_tree_const_iterator", ptr %5, i32 0, i32 0
  %7 = load ptr, ptr %4, align 8
  store ptr %7, ptr %6, align 8
  ret void
}

; Function Attrs: mustprogress nounwind uwtable
define linkonce_odr noundef zeroext i1 @_ZNKSt4lessIxEclERKxS2_(ptr noundef nonnull align 1 dereferenceable(1) %0, ptr noundef nonnull align 8 dereferenceable(8) %1, ptr noundef nonnull align 8 dereferenceable(8) %2) #0 comdat align 2 {
  %4 = alloca ptr, align 8
  %5 = alloca ptr, align 8
  %6 = alloca ptr, align 8
  store ptr %0, ptr %4, align 8
  store ptr %1, ptr %5, align 8
  store ptr %2, ptr %6, align 8
  %7 = load ptr, ptr %5, align 8
  %8 = load i64, ptr %7, align 8
  %9 = load ptr, ptr %6, align 8
  %10 = load i64, ptr %9, align 8
  %11 = icmp slt i64 %8, %10
  ret i1 %11
}

; Function Attrs: mustprogress nounwind uwtable
define linkonce_odr noundef nonnull align 8 dereferenceable(8) ptr @_ZNSt8_Rb_treeIxxSt9_IdentityIxESt4lessIxESaIxEE6_S_keyEPKSt18_Rb_tree_node_base(ptr noundef %0) #0 comdat align 2 {
  %2 = alloca ptr, align 8
  store ptr %0, ptr %2, align 8
  %3 = load ptr, ptr %2, align 8
  %4 = call noundef nonnull align 8 dereferenceable(8) ptr @_ZNSt8_Rb_treeIxxSt9_IdentityIxESt4lessIxESaIxEE6_S_keyEPKSt13_Rb_tree_nodeIxE(ptr noundef %3)
  ret ptr %4
}

; Function Attrs: mustprogress nounwind uwtable
define linkonce_odr ptr @_ZNKSt8_Rb_treeIxxSt9_IdentityIxESt4lessIxESaIxEE14_M_lower_boundEPKSt13_Rb_tree_nodeIxEPKSt18_Rb_tree_node_baseRKx(ptr noundef nonnull align 8 dereferenceable(48) %0, ptr noundef %1, ptr noundef %2, ptr noundef nonnull align 8 dereferenceable(8) %3) #0 comdat align 2 {
  %5 = alloca %"struct.std::_Rb_tree_const_iterator", align 8
  %6 = alloca ptr, align 8
  %7 = alloca ptr, align 8
  %8 = alloca ptr, align 8
  %9 = alloca ptr, align 8
  store ptr %0, ptr %6, align 8
  store ptr %1, ptr %7, align 8
  store ptr %2, ptr %8, align 8
  store ptr %3, ptr %9, align 8
  %10 = load ptr, ptr %6, align 8
  br label %11

11:                                               ; preds = %28, %4
  %12 = load ptr, ptr %7, align 8
  %13 = icmp ne ptr %12, null
  br i1 %13, label %14, label %29

14:                                               ; preds = %11
  %15 = getelementptr inbounds %"class.std::_Rb_tree.55", ptr %10, i32 0, i32 0
  %16 = getelementptr inbounds %"struct.std::_Rb_tree_key_compare.59", ptr %15, i32 0, i32 0
  %17 = load ptr, ptr %7, align 8
  %18 = call noundef nonnull align 8 dereferenceable(8) ptr @_ZNSt8_Rb_treeIxxSt9_IdentityIxESt4lessIxESaIxEE6_S_keyEPKSt13_Rb_tree_nodeIxE(ptr noundef %17)
  %19 = load ptr, ptr %9, align 8
  %20 = call noundef zeroext i1 @_ZNKSt4lessIxEclERKxS2_(ptr noundef nonnull align 1 dereferenceable(1) %16, ptr noundef nonnull align 8 dereferenceable(8) %18, ptr noundef nonnull align 8 dereferenceable(8) %19)
  br i1 %20, label %25, label %21

21:                                               ; preds = %14
  %22 = load ptr, ptr %7, align 8
  store ptr %22, ptr %8, align 8
  %23 = load ptr, ptr %7, align 8
  %24 = call noundef ptr @_ZNSt8_Rb_treeIxxSt9_IdentityIxESt4lessIxESaIxEE7_S_leftEPKSt18_Rb_tree_node_base(ptr noundef %23) #5
  store ptr %24, ptr %7, align 8
  br label %28

25:                                               ; preds = %14
  %26 = load ptr, ptr %7, align 8
  %27 = call noundef ptr @_ZNSt8_Rb_treeIxxSt9_IdentityIxESt4lessIxESaIxEE8_S_rightEPKSt18_Rb_tree_node_base(ptr noundef %26) #5
  store ptr %27, ptr %7, align 8
  br label %28

28:                                               ; preds = %25, %21
  br label %11, !llvm.loop !9

29:                                               ; preds = %11
  %30 = load ptr, ptr %8, align 8
  call void @_ZNSt23_Rb_tree_const_iteratorIxEC2EPKSt18_Rb_tree_node_base(ptr noundef nonnull align 8 dereferenceable(8) %5, ptr noundef %30) #5
  %31 = getelementptr inbounds %"struct.std::_Rb_tree_const_iterator", ptr %5, i32 0, i32 0
  %32 = load ptr, ptr %31, align 8
  ret ptr %32
}

; Function Attrs: mustprogress nounwind uwtable
define linkonce_odr noundef ptr @_ZNKSt8_Rb_treeIxxSt9_IdentityIxESt4lessIxESaIxEE6_M_endEv(ptr noundef nonnull align 8 dereferenceable(48) %0) #0 comdat align 2 {
  %2 = alloca ptr, align 8
  store ptr %0, ptr %2, align 8
  %3 = load ptr, ptr %2, align 8
  %4 = getelementptr inbounds %"class.std::_Rb_tree.55", ptr %3, i32 0, i32 0
  %5 = getelementptr inbounds i8, ptr %4, i64 8
  %6 = getelementptr inbounds %"struct.std::_Rb_tree_header", ptr %5, i32 0, i32 0
  ret ptr %6
}

; Function Attrs: mustprogress nounwind uwtable
define linkonce_odr noundef ptr @_ZNKSt8_Rb_treeIxxSt9_IdentityIxESt4lessIxESaIxEE8_M_beginEv(ptr noundef nonnull align 8 dereferenceable(48) %0) #0 comdat align 2 {
  %2 = alloca ptr, align 8
  store ptr %0, ptr %2, align 8
  %3 = load ptr, ptr %2, align 8
  %4 = getelementptr inbounds %"class.std::_Rb_tree.55", ptr %3, i32 0, i32 0
  %5 = getelementptr inbounds i8, ptr %4, i64 8
  %6 = getelementptr inbounds %"struct.std::_Rb_tree_header", ptr %5, i32 0, i32 0
  %7 = getelementptr inbounds %"struct.std::_Rb_tree_node_base", ptr %6, i32 0, i32 1
  %8 = load ptr, ptr %7, align 8
  ret ptr %8
}

; Function Attrs: mustprogress nounwind uwtable
define linkonce_odr ptr @_ZNKSt8_Rb_treeIxxSt9_IdentityIxESt4lessIxESaIxEE3endEv(ptr noundef nonnull align 8 dereferenceable(48) %0) #0 comdat align 2 {
  %2 = alloca %"struct.std::_Rb_tree_const_iterator", align 8
  %3 = alloca ptr, align 8
  store ptr %0, ptr %3, align 8
  %4 = load ptr, ptr %3, align 8
  %5 = getelementptr inbounds %"class.std::_Rb_tree.55", ptr %4, i32 0, i32 0
  %6 = getelementptr inbounds i8, ptr %5, i64 8
  %7 = getelementptr inbounds %"struct.std::_Rb_tree_header", ptr %6, i32 0, i32 0
  call void @_ZNSt23_Rb_tree_const_iteratorIxEC2EPKSt18_Rb_tree_node_base(ptr noundef nonnull align 8 dereferenceable(8) %2, ptr noundef %7) #5
  %8 = getelementptr inbounds %"struct.std::_Rb_tree_const_iterator", ptr %2, i32 0, i32 0
  %9 = load ptr, ptr %8, align 8
  ret ptr %9
}

; Function Attrs: mustprogress nounwind uwtable
define linkonce_odr ptr @_ZNKSt8_Rb_treeIxxSt9_IdentityIxESt4lessIxESaIxEE4findERKx(ptr noundef nonnull align 8 dereferenceable(48) %0, ptr noundef nonnull align 8 dereferenceable(8) %1) #0 comdat align 2 {
  %3 = alloca %"struct.std::_Rb_tree_const_iterator", align 8
  %4 = alloca ptr, align 8
  %5 = alloca ptr, align 8
  %6 = alloca %"struct.std::_Rb_tree_const_iterator", align 8
  %7 = alloca %"struct.std::_Rb_tree_const_iterator", align 8
  store ptr %0, ptr %4, align 8
  store ptr %1, ptr %5, align 8
  %8 = load ptr, ptr %4, align 8
  %9 = call noundef ptr @_ZNKSt8_Rb_treeIxxSt9_IdentityIxESt4lessIxESaIxEE8_M_beginEv(ptr noundef nonnull align 8 dereferenceable(48) %8) #5
  %10 = call noundef ptr @_ZNKSt8_Rb_treeIxxSt9_IdentityIxESt4lessIxESaIxEE6_M_endEv(ptr noundef nonnull align 8 dereferenceable(48) %8) #5
  %11 = load ptr, ptr %5, align 8
  %12 = call ptr @_ZNKSt8_Rb_treeIxxSt9_IdentityIxESt4lessIxESaIxEE14_M_lower_boundEPKSt13_Rb_tree_nodeIxEPKSt18_Rb_tree_node_baseRKx(ptr noundef nonnull align 8 dereferenceable(48) %8, ptr noundef %9, ptr noundef %10, ptr noundef nonnull align 8 dereferenceable(8) %11)
  %13 = getelementptr inbounds %"struct.std::_Rb_tree_const_iterator", ptr %6, i32 0, i32 0
  store ptr %12, ptr %13, align 8
  %14 = call ptr @_ZNKSt8_Rb_treeIxxSt9_IdentityIxESt4lessIxESaIxEE3endEv(ptr noundef nonnull align 8 dereferenceable(48) %8) #5
  %15 = getelementptr inbounds %"struct.std::_Rb_tree_const_iterator", ptr %7, i32 0, i32 0
  store ptr %14, ptr %15, align 8
  %16 = call noundef zeroext i1 @_ZSteqRKSt23_Rb_tree_const_iteratorIxES2_(ptr noundef nonnull align 8 dereferenceable(8) %6, ptr noundef nonnull align 8 dereferenceable(8) %7) #5
  br i1 %16, label %25, label %17

17:                                               ; preds = %2
  %18 = getelementptr inbounds %"class.std::_Rb_tree.55", ptr %8, i32 0, i32 0
  %19 = getelementptr inbounds %"struct.std::_Rb_tree_key_compare.59", ptr %18, i32 0, i32 0
  %20 = load ptr, ptr %5, align 8
  %21 = getelementptr inbounds %"struct.std::_Rb_tree_const_iterator", ptr %6, i32 0, i32 0
  %22 = load ptr, ptr %21, align 8
  %23 = call noundef nonnull align 8 dereferenceable(8) ptr @_ZNSt8_Rb_treeIxxSt9_IdentityIxESt4lessIxESaIxEE6_S_keyEPKSt18_Rb_tree_node_base(ptr noundef %22)
  %24 = call noundef zeroext i1 @_ZNKSt4lessIxEclERKxS2_(ptr noundef nonnull align 1 dereferenceable(1) %19, ptr noundef nonnull align 8 dereferenceable(8) %20, ptr noundef nonnull align 8 dereferenceable(8) %23)
  br i1 %24, label %25, label %28

25:                                               ; preds = %17, %2
  %26 = call ptr @_ZNKSt8_Rb_treeIxxSt9_IdentityIxESt4lessIxESaIxEE3endEv(ptr noundef nonnull align 8 dereferenceable(48) %8) #5
  %27 = getelementptr inbounds %"struct.std::_Rb_tree_const_iterator", ptr %3, i32 0, i32 0
  store ptr %26, ptr %27, align 8
  br label %29

28:                                               ; preds = %17
  call void @llvm.memcpy.p0.p0.i64(ptr align 8 %3, ptr align 8 %6, i64 8, i1 false)
  br label %29

29:                                               ; preds = %28, %25
  %30 = getelementptr inbounds %"struct.std::_Rb_tree_const_iterator", ptr %3, i32 0, i32 0
  %31 = load ptr, ptr %30, align 8
  ret ptr %31
}

; Function Attrs: mustprogress nounwind uwtable
define linkonce_odr noundef zeroext i1 @_ZSteqRKSt23_Rb_tree_const_iteratorIxES2_(ptr noundef nonnull align 8 dereferenceable(8) %0, ptr noundef nonnull align 8 dereferenceable(8) %1) #0 comdat {
  %3 = alloca ptr, align 8
  %4 = alloca ptr, align 8
  store ptr %0, ptr %3, align 8
  store ptr %1, ptr %4, align 8
  %5 = load ptr, ptr %3, align 8
  %6 = getelementptr inbounds %"struct.std::_Rb_tree_const_iterator", ptr %5, i32 0, i32 0
  %7 = load ptr, ptr %6, align 8
  %8 = load ptr, ptr %4, align 8
  %9 = getelementptr inbounds %"struct.std::_Rb_tree_const_iterator", ptr %8, i32 0, i32 0
  %10 = load ptr, ptr %9, align 8
  %11 = icmp eq ptr %7, %10
  ret i1 %11
}

; Function Attrs: mustprogress nounwind uwtable
define linkonce_odr ptr @_ZNKSt3setIxSt4lessIxESaIxEE3endEv(ptr noundef nonnull align 8 dereferenceable(48) %0) #0 comdat align 2 {
  %2 = alloca %"struct.std::_Rb_tree_const_iterator", align 8
  %3 = alloca ptr, align 8
  store ptr %0, ptr %3, align 8
  %4 = load ptr, ptr %3, align 8
  %5 = getelementptr inbounds %"class.std::set", ptr %4, i32 0, i32 0
  %6 = call ptr @_ZNKSt8_Rb_treeIxxSt9_IdentityIxESt4lessIxESaIxEE3endEv(ptr noundef nonnull align 8 dereferenceable(48) %5) #5
  %7 = getelementptr inbounds %"struct.std::_Rb_tree_const_iterator", ptr %2, i32 0, i32 0
  store ptr %6, ptr %7, align 8
  %8 = getelementptr inbounds %"struct.std::_Rb_tree_const_iterator", ptr %2, i32 0, i32 0
  %9 = load ptr, ptr %8, align 8
  ret ptr %9
}

; Function Attrs: mustprogress nounwind uwtable
define linkonce_odr ptr @_ZNKSt3setIxSt4lessIxESaIxEE4findERKx(ptr noundef nonnull align 8 dereferenceable(48) %0, ptr noundef nonnull align 8 dereferenceable(8) %1) #0 comdat align 2 {
  %3 = alloca %"struct.std::_Rb_tree_const_iterator", align 8
  %4 = alloca ptr, align 8
  %5 = alloca ptr, align 8
  store ptr %0, ptr %4, align 8
  store ptr %1, ptr %5, align 8
  %6 = load ptr, ptr %4, align 8
  %7 = getelementptr inbounds %"class.std::set", ptr %6, i32 0, i32 0
  %8 = load ptr, ptr %5, align 8
  %9 = call ptr @_ZNKSt8_Rb_treeIxxSt9_IdentityIxESt4lessIxESaIxEE4findERKx(ptr noundef nonnull align 8 dereferenceable(48) %7, ptr noundef nonnull align 8 dereferenceable(8) %8)
  %10 = getelementptr inbounds %"struct.std::_Rb_tree_const_iterator", ptr %3, i32 0, i32 0
  store ptr %9, ptr %10, align 8
  %11 = getelementptr inbounds %"struct.std::_Rb_tree_const_iterator", ptr %3, i32 0, i32 0
  %12 = load ptr, ptr %11, align 8
  ret ptr %12
}

; Function Attrs: mustprogress nounwind uwtable
define void @_ZN7glslang15TIndexTraverser11visitSymbolEPNS_13TIntermSymbolE(ptr noundef nonnull align 8 dereferenceable(96) %0, ptr noundef %1) unnamed_addr #0 align 2 {
  %3 = alloca ptr, align 8
  %4 = alloca ptr, align 8
  %5 = alloca %"struct.std::_Rb_tree_const_iterator", align 8
  %6 = alloca i64, align 8
  %7 = alloca %"struct.std::_Rb_tree_const_iterator", align 8
  store ptr %0, ptr %3, align 8
  store ptr %1, ptr %4, align 8
  %8 = load ptr, ptr %3, align 8
  %9 = getelementptr inbounds %"class.glslang::TIndexTraverser", ptr %8, i32 0, i32 1
  %10 = load ptr, ptr %9, align 8
  %11 = load ptr, ptr %4, align 8
  %12 = load ptr, ptr %11, align 8
  %13 = getelementptr inbounds ptr, ptr %12, i64 48
  %14 = load ptr, ptr %13, align 8
  %15 = call noundef i64 %14(ptr noundef nonnull align 8 dereferenceable(264) %11)
  store i64 %15, ptr %6, align 8
  %16 = call ptr @_ZNKSt3setIxSt4lessIxESaIxEE4findERKx(ptr noundef nonnull align 8 dereferenceable(48) %10, ptr noundef nonnull align 8 dereferenceable(8) %6)
  %17 = getelementptr inbounds %"struct.std::_Rb_tree_const_iterator", ptr %5, i32 0, i32 0
  store ptr %16, ptr %17, align 8
  %18 = getelementptr inbounds %"class.glslang::TIndexTraverser", ptr %8, i32 0, i32 1
  %19 = load ptr, ptr %18, align 8
  %20 = call ptr @_ZNKSt3setIxSt4lessIxESaIxEE3endEv(ptr noundef nonnull align 8 dereferenceable(48) %19) #5
  %21 = getelementptr inbounds %"struct.std::_Rb_tree_const_iterator", ptr %7, i32 0, i32 0
  store ptr %20, ptr %21, align 8
  %22 = call noundef zeroext i1 @_ZSteqRKSt23_Rb_tree_const_iteratorIxES2_(ptr noundef nonnull align 8 dereferenceable(8) %5, ptr noundef nonnull align 8 dereferenceable(8) %7) #5
  br i1 %22, label %23, label %31

23:                                               ; preds = %2
  %24 = getelementptr inbounds %"class.glslang::TIndexTraverser", ptr %8, i32 0, i32 2
  store i8 1, ptr %24, align 8
  %25 = load ptr, ptr %4, align 8
  %26 = load ptr, ptr %25, align 8
  %27 = getelementptr inbounds ptr, ptr %26, i64 0
  %28 = load ptr, ptr %27, align 8
  %29 = call noundef nonnull align 8 dereferenceable(24) ptr %28(ptr noundef nonnull align 8 dereferenceable(32) %25)
  %30 = getelementptr inbounds %"class.glslang::TIndexTraverser", ptr %8, i32 0, i32 3
  call void @llvm.memcpy.p0.p0.i64(ptr align 8 %30, ptr align 8 %29, i64 24, i1 false)
  br label %31

31:                                               ; preds = %23, %2
  ret void
}