; Function Attrs: mustprogress nounwind uwtable
define void @_ZN7glslang15TIndexTraverser11visitSymbolEPNS_13TIntermSymbolE(ptr nocapture noundef nonnull align 8 dereferenceable(96) %0, ptr noundef %1) unnamed_addr #0 align 2 {
  %3 = getelementptr inbounds i8, ptr %0, i64 56
  %4 = load ptr, ptr %3, align 8
  %5 = load ptr, ptr %1, align 8
  %6 = getelementptr inbounds i8, ptr %5, i64 384
  %7 = load ptr, ptr %6, align 8
  %8 = tail call noundef i64 %7(ptr noundef nonnull align 8 dereferenceable(264) %1) #6
  %9 = getelementptr inbounds i8, ptr %4, i64 16
  %10 = load ptr, ptr %9, align 8
  %11 = getelementptr inbounds i8, ptr %4, i64 8
  %.not10.i.i.i = icmp eq ptr %10, null
  br i1 %.not10.i.i.i, label %_ZNKSt3setIxSt4lessIxESaIxEE4findERKx.exit, label %.lr.ph.i.i.i

.lr.ph.i.i.i:                                     ; preds = %2, %.lr.ph.i.i.i
  %.012.i.i.i = phi ptr [ %.1.i.i.i, %.lr.ph.i.i.i ], [ %10, %2 ]
  %.0811.i.i.i = phi ptr [ %.19.i.i.i, %.lr.ph.i.i.i ], [ %11, %2 ]
  %12 = getelementptr inbounds i8, ptr %.012.i.i.i, i64 32
  %13 = load i64, ptr %12, align 8
  %14 = icmp slt i64 %13, %8
  %.19.i.i.i = select i1 %14, ptr %.0811.i.i.i, ptr %.012.i.i.i
  %.1.in.v.i.i.i = select i1 %14, i64 24, i64 16
  %.1.in.i.i.i = getelementptr inbounds i8, ptr %.012.i.i.i, i64 %.1.in.v.i.i.i
  %.1.i.i.i = load ptr, ptr %.1.in.i.i.i, align 8
  %.not.i.i.i = icmp eq ptr %.1.i.i.i, null
  br i1 %.not.i.i.i, label %_ZNKSt8_Rb_treeIxxSt9_IdentityIxESt4lessIxESaIxEE14_M_lower_boundEPKSt13_Rb_tree_nodeIxEPKSt18_Rb_tree_node_baseRKx.exit.i.i, label %.lr.ph.i.i.i, !llvm.loop !8

_ZNKSt8_Rb_treeIxxSt9_IdentityIxESt4lessIxESaIxEE14_M_lower_boundEPKSt13_Rb_tree_nodeIxEPKSt18_Rb_tree_node_baseRKx.exit.i.i: ; preds = %.lr.ph.i.i.i
  %15 = icmp eq ptr %.19.i.i.i, %11
  br i1 %15, label %_ZNKSt3setIxSt4lessIxESaIxEE4findERKx.exit, label %16

16:                                               ; preds = %_ZNKSt8_Rb_treeIxxSt9_IdentityIxESt4lessIxESaIxEE14_M_lower_boundEPKSt13_Rb_tree_nodeIxEPKSt18_Rb_tree_node_baseRKx.exit.i.i
  %17 = getelementptr inbounds i8, ptr %.19.i.i.i, i64 32
  %18 = load i64, ptr %17, align 8
  %19 = icmp slt i64 %8, %18
  %spec.select.i.i = select i1 %19, ptr %11, ptr %.19.i.i.i
  br label %_ZNKSt3setIxSt4lessIxESaIxEE4findERKx.exit

_ZNKSt3setIxSt4lessIxESaIxEE4findERKx.exit:       ; preds = %2, %_ZNKSt8_Rb_treeIxxSt9_IdentityIxESt4lessIxESaIxEE14_M_lower_boundEPKSt13_Rb_tree_nodeIxEPKSt18_Rb_tree_node_baseRKx.exit.i.i, %16
  %.sroa.0.0.i.i = phi ptr [ %11, %_ZNKSt8_Rb_treeIxxSt9_IdentityIxESt4lessIxESaIxEE14_M_lower_boundEPKSt13_Rb_tree_nodeIxEPKSt18_Rb_tree_node_baseRKx.exit.i.i ], [ %11, %2 ], [ %spec.select.i.i, %16 ]
  %20 = load ptr, ptr %3, align 8
  %21 = getelementptr inbounds i8, ptr %20, i64 8
  %22 = icmp eq ptr %.sroa.0.0.i.i, %21
  br i1 %22, label %23, label %29

23:                                               ; preds = %_ZNKSt3setIxSt4lessIxESaIxEE4findERKx.exit
  %24 = getelementptr inbounds i8, ptr %0, i64 64
  store i8 1, ptr %24, align 8
  %25 = load ptr, ptr %1, align 8
  %26 = load ptr, ptr %25, align 8
  %27 = tail call noundef nonnull align 8 dereferenceable(24) ptr %26(ptr noundef nonnull align 8 dereferenceable(32) %1) #6
  %28 = getelementptr inbounds i8, ptr %0, i64 72
  tail call void @llvm.memcpy.p0.p0.i64(ptr noundef nonnull align 8 dereferenceable(24) %28, ptr noundef nonnull align 8 dereferenceable(24) %27, i64 24, i1 false)
  br label %29

29:                                               ; preds = %23, %_ZNKSt3setIxSt4lessIxESaIxEE4findERKx.exit
  ret void
}